target datalayout = "e-m:e-p270:32:32-p271:32:32-p272:64:64-i64:64-i128:128-f80:128-n8:16:32:64-S128"
target triple = "x86_64-pc-linux-gnu"

%struct.b2IslandArray = type { ptr, i32, i32 }
%struct.b2IslandSimArray = type { ptr, i32, i32 }
%struct.b2Island = type { i32, i32, i32, i32, i32, i32, i32, i32, i32, i32, i32, i32, i32, i32 }
%struct.b2World = type { %struct.b2ArenaAllocator, %struct.b2BroadPhase, %struct.b2ConstraintGraph, %struct.b2IdPool, %struct.b2BodyArray, %struct.b2IdPool, %struct.b2SolverSetArray, %struct.b2IdPool, %struct.b2JointArray, %struct.b2IdPool, %struct.b2ContactArray, %struct.b2IdPool, %struct.b2IslandArray, %struct.b2IdPool, %struct.b2IdPool, %struct.b2ShapeArray, %struct.b2ChainShapeArray, %struct.b2SensorArray, %struct.b2TaskContextArray, %struct.b2SensorTaskContextArray, %struct.b2BodyMoveEventArray, %struct.b2SensorBeginTouchEventArray, %struct.b2ContactBeginTouchEventArray, [2 x %struct.b2SensorEndTouchEventArray], [2 x %struct.b2ContactEndTouchEventArray], i32, %struct.b2ContactHitEventArray, %struct.b2BitSet, %struct.b2BitSet, %struct.b2BitSet, i64, i32, %struct.b2Vec2, float, float, float, float, float, float, float, float, ptr, ptr, i16, %struct.b2Profile, ptr, ptr, ptr, ptr, i32, ptr, ptr, ptr, ptr, ptr, float, i32, i32, i16, i8, i8, i8, i8, i8, i8 }
%struct.b2ArenaAllocator = type { ptr, i32, i32, i32, i32, %struct.b2ArenaEntryArray }
%struct.b2ArenaEntryArray = type { ptr, i32, i32 }
%struct.b2BroadPhase = type { [3 x %struct.b2DynamicTree], i32, %struct.b2HashSet, %struct.b2IntArray, ptr, ptr, i32, %struct.b2AtomicInt, %struct.b2HashSet }
%struct.b2DynamicTree = type { ptr, i32, i32, i32, i32, i32, ptr, ptr, ptr, ptr, i32 }
%struct.b2IntArray = type { ptr, i32, i32 }
%struct.b2AtomicInt = type { i32 }
%struct.b2HashSet = type { ptr, i32, i32 }
%struct.b2ConstraintGraph = type { [12 x %struct.b2GraphColor] }
%struct.b2GraphColor = type { %struct.b2BitSet, %struct.b2ContactSimArray, %struct.b2JointSimArray, %union.anon }
%struct.b2ContactSimArray = type { ptr, i32, i32 }
%struct.b2JointSimArray = type { ptr, i32, i32 }
%union.anon = type { ptr }
%struct.b2BodyArray = type { ptr, i32, i32 }
%struct.b2SolverSetArray = type { ptr, i32, i32 }
%struct.b2JointArray = type { ptr, i32, i32 }
%struct.b2ContactArray = type { ptr, i32, i32 }
%struct.b2IdPool = type { %struct.b2IntArray, i32 }
%struct.b2ShapeArray = type { ptr, i32, i32 }
%struct.b2ChainShapeArray = type { ptr, i32, i32 }
%struct.b2SensorArray = type { ptr, i32, i32 }
%struct.b2TaskContextArray = type { ptr, i32, i32 }
%struct.b2SensorTaskContextArray = type { ptr, i32, i32 }
%struct.b2BodyMoveEventArray = type { ptr, i32, i32 }
%struct.b2SensorBeginTouchEventArray = type { ptr, i32, i32 }
%struct.b2ContactBeginTouchEventArray = type { ptr, i32, i32 }
%struct.b2SensorEndTouchEventArray = type { ptr, i32, i32 }
%struct.b2ContactEndTouchEventArray = type { ptr, i32, i32 }
%struct.b2ContactHitEventArray = type { ptr, i32, i32 }
%struct.b2BitSet = type { ptr, i32, i32 }
%struct.b2Vec2 = type { float, float }
%struct.b2Profile = type { float, float, float, float, float, float, float, float, float, float, float, float, float, float, float, float, float, float, float, float, float, float }
%struct.b2SolverSet = type { %struct.b2BodySimArray, %struct.b2BodyStateArray, %struct.b2JointSimArray, %struct.b2ContactSimArray, %struct.b2IslandSimArray, i32 }
%struct.b2BodySimArray = type { ptr, i32, i32 }
%struct.b2BodyStateArray = type { ptr, i32, i32 }
%struct.b2IslandSim = type { i32 }

; Function Attrs: inlinehint nounwind uwtable
define internal i32 @b2IslandSimArray_RemoveSwap(ptr noundef %0, i32 noundef %1) #4 {
  %3 = alloca ptr, align 8
  %4 = alloca i32, align 4
  %5 = alloca i32, align 4
  store ptr %0, ptr %3, align 8, !tbaa !12
  store i32 %1, ptr %4, align 4, !tbaa !3
  call void @llvm.lifetime.start.p0(i64 4, ptr %5) #6
  store i32 -1, ptr %5, align 4, !tbaa !3
  %6 = load i32, ptr %4, align 4, !tbaa !3
  %7 = load ptr, ptr %3, align 8, !tbaa !12
  %8 = getelementptr inbounds nuw %struct.b2IslandSimArray, ptr %7, i32 0, i32 1
  %9 = load i32, ptr %8, align 8, !tbaa !18
  %10 = sub nsw i32 %9, 1
  %11 = icmp ne i32 %6, %10
  br i1 %11, label %12, label %29

12:                                               ; preds = %2
  %13 = load ptr, ptr %3, align 8, !tbaa !12
  %14 = getelementptr inbounds nuw %struct.b2IslandSimArray, ptr %13, i32 0, i32 1
  %15 = load i32, ptr %14, align 8, !tbaa !18
  %16 = sub nsw i32 %15, 1
  store i32 %16, ptr %5, align 4, !tbaa !3
  %17 = load ptr, ptr %3, align 8, !tbaa !12
  %18 = getelementptr inbounds nuw %struct.b2IslandSimArray, ptr %17, i32 0, i32 0
  %19 = load ptr, ptr %18, align 8, !tbaa !14
  %20 = load i32, ptr %4, align 4, !tbaa !3
  %21 = sext i32 %20 to i64
  %22 = getelementptr inbounds %struct.b2IslandSim, ptr %19, i64 %21
  %23 = load ptr, ptr %3, align 8, !tbaa !12
  %24 = getelementptr inbounds nuw %struct.b2IslandSimArray, ptr %23, i32 0, i32 0
  %25 = load ptr, ptr %24, align 8, !tbaa !14
  %26 = load i32, ptr %5, align 4, !tbaa !3
  %27 = sext i32 %26 to i64
  %28 = getelementptr inbounds %struct.b2IslandSim, ptr %25, i64 %27
  call void @llvm.memcpy.p0.p0.i64(ptr align 4 %22, ptr align 4 %28, i64 4, i1 false), !tbaa.struct !104
  br label %29

29:                                               ; preds = %12, %2
  %30 = load ptr, ptr %3, align 8, !tbaa !12
  %31 = getelementptr inbounds nuw %struct.b2IslandSimArray, ptr %30, i32 0, i32 1
  %32 = load i32, ptr %31, align 8, !tbaa !18
  %33 = sub nsw i32 %32, 1
  store i32 %33, ptr %31, align 8, !tbaa !18
  %34 = load i32, ptr %5, align 4, !tbaa !3
  call void @llvm.lifetime.end.p0(i64 4, ptr %5) #6
  ret i32 %34
}

; Function Attrs: inlinehint nounwind uwtable
define internal ptr @b2SolverSetArray_Get(ptr noundef %0, i32 noundef %1) #4 {
  %3 = alloca ptr, align 8
  %4 = alloca i32, align 4
  store ptr %0, ptr %3, align 8, !tbaa !12
  store i32 %1, ptr %4, align 4, !tbaa !3
  %5 = load ptr, ptr %3, align 8, !tbaa !12
  %6 = getelementptr inbounds nuw %struct.b2SolverSetArray, ptr %5, i32 0, i32 0
  %7 = load ptr, ptr %6, align 8, !tbaa !102
  %8 = load i32, ptr %4, align 4, !tbaa !3
  %9 = sext i32 %8 to i64
  %10 = getelementptr inbounds %struct.b2SolverSet, ptr %7, i64 %9
  ret ptr %10
}

; Function Attrs: inlinehint nounwind uwtable
define internal ptr @b2IslandArray_Get(ptr noundef %0, i32 noundef %1) #4 {
  %3 = alloca ptr, align 8
  %4 = alloca i32, align 4
  store ptr %0, ptr %3, align 8, !tbaa !12
  store i32 %1, ptr %4, align 4, !tbaa !3
  %5 = load ptr, ptr %3, align 8, !tbaa !12
  %6 = getelementptr inbounds nuw %struct.b2IslandArray, ptr %5, i32 0, i32 0
  %7 = load ptr, ptr %6, align 8, !tbaa !7
  %8 = load i32, ptr %4, align 4, !tbaa !3
  %9 = sext i32 %8 to i64
  %10 = getelementptr inbounds %struct.b2Island, ptr %7, i64 %9
  ret ptr %10
}

; Function Attrs: nounwind uwtable
define hidden void @b2DestroyIsland(ptr noundef %0, i32 noundef %1) #0 {
  %3 = alloca ptr, align 8
  %4 = alloca i32, align 4
  %5 = alloca ptr, align 8
  %6 = alloca ptr, align 8
  %7 = alloca i32, align 4
  %8 = alloca ptr, align 8
  %9 = alloca i32, align 4
  %10 = alloca ptr, align 8
  store ptr %0, ptr %3, align 8, !tbaa !19
  store i32 %1, ptr %4, align 4, !tbaa !3
  call void @llvm.lifetime.start.p0(i64 8, ptr %5) #6
  %11 = load ptr, ptr %3, align 8, !tbaa !19
  %12 = getelementptr inbounds nuw %struct.b2World, ptr %11, i32 0, i32 12
  %13 = load i32, ptr %4, align 4, !tbaa !3
  %14 = call ptr @b2IslandArray_Get(ptr noundef %12, i32 noundef %13)
  store ptr %14, ptr %5, align 8, !tbaa !72
  call void @llvm.lifetime.start.p0(i64 8, ptr %6) #6
  %15 = load ptr, ptr %3, align 8, !tbaa !19
  %16 = getelementptr inbounds nuw %struct.b2World, ptr %15, i32 0, i32 6
  %17 = load ptr, ptr %5, align 8, !tbaa !72
  %18 = getelementptr inbounds nuw %struct.b2Island, ptr %17, i32 0, i32 0
  %19 = load i32, ptr %18, align 4, !tbaa !73
  %20 = call ptr @b2SolverSetArray_Get(ptr noundef %16, i32 noundef %19)
  store ptr %20, ptr %6, align 8, !tbaa !71
  call void @llvm.lifetime.start.p0(i64 4, ptr %7) #6
  %21 = load ptr, ptr %6, align 8, !tbaa !71
  %22 = getelementptr inbounds nuw %struct.b2SolverSet, ptr %21, i32 0, i32 4
  %23 = load ptr, ptr %5, align 8, !tbaa !72
  %24 = getelementptr inbounds nuw %struct.b2Island, ptr %23, i32 0, i32 1
  %25 = load i32, ptr %24, align 4, !tbaa !85
  %26 = call i32 @b2IslandSimArray_RemoveSwap(ptr noundef %22, i32 noundef %25)
  store i32 %26, ptr %7, align 4, !tbaa !3
  %27 = load i32, ptr %7, align 4, !tbaa !3
  %28 = icmp ne i32 %27, -1
  br i1 %28, label %29, label %51

29:                                               ; preds = %2
  call void @llvm.lifetime.start.p0(i64 8, ptr %8) #6
  %30 = load ptr, ptr %6, align 8, !tbaa !71
  %31 = getelementptr inbounds nuw %struct.b2SolverSet, ptr %30, i32 0, i32 4
  %32 = getelementptr inbounds nuw %struct.b2IslandSimArray, ptr %31, i32 0, i32 0
  %33 = load ptr, ptr %32, align 8, !tbaa !103
  %34 = load ptr, ptr %5, align 8, !tbaa !72
  %35 = getelementptr inbounds nuw %struct.b2Island, ptr %34, i32 0, i32 1
  %36 = load i32, ptr %35, align 4, !tbaa !85
  %37 = sext i32 %36 to i64
  %38 = getelementptr inbounds %struct.b2IslandSim, ptr %33, i64 %37
  store ptr %38, ptr %8, align 8, !tbaa !98
  call void @llvm.lifetime.start.p0(i64 4, ptr %9) #6
  %39 = load ptr, ptr %8, align 8, !tbaa !98
  %40 = getelementptr inbounds nuw %struct.b2IslandSim, ptr %39, i32 0, i32 0
  %41 = load i32, ptr %40, align 4, !tbaa !99
  store i32 %41, ptr %9, align 4, !tbaa !3
  call void @llvm.lifetime.start.p0(i64 8, ptr %10) #6
  %42 = load ptr, ptr %3, align 8, !tbaa !19
  %43 = getelementptr inbounds nuw %struct.b2World, ptr %42, i32 0, i32 12
  %44 = load i32, ptr %9, align 4, !tbaa !3
  %45 = call ptr @b2IslandArray_Get(ptr noundef %43, i32 noundef %44)
  store ptr %45, ptr %10, align 8, !tbaa !72
  %46 = load ptr, ptr %5, align 8, !tbaa !72
  %47 = getelementptr inbounds nuw %struct.b2Island, ptr %46, i32 0, i32 1
  %48 = load i32, ptr %47, align 4, !tbaa !85
  %49 = load ptr, ptr %10, align 8, !tbaa !72
  %50 = getelementptr inbounds nuw %struct.b2Island, ptr %49, i32 0, i32 1
  store i32 %48, ptr %50, align 4, !tbaa !85
  call void @llvm.lifetime.end.p0(i64 8, ptr %10) #6
  call void @llvm.lifetime.end.p0(i64 4, ptr %9) #6
  call void @llvm.lifetime.end.p0(i64 8, ptr %8) #6
  br label %51

51:                                               ; preds = %29, %2
  %52 = load ptr, ptr %5, align 8, !tbaa !72
  %53 = getelementptr inbounds nuw %struct.b2Island, ptr %52, i32 0, i32 2
  store i32 -1, ptr %53, align 4, !tbaa !86
  %54 = load ptr, ptr %5, align 8, !tbaa !72
  %55 = getelementptr inbounds nuw %struct.b2Island, ptr %54, i32 0, i32 0
  store i32 -1, ptr %55, align 4, !tbaa !73
  %56 = load ptr, ptr %5, align 8, !tbaa !72
  %57 = getelementptr inbounds nuw %struct.b2Island, ptr %56, i32 0, i32 1
  store i32 -1, ptr %57, align 4, !tbaa !85
  %58 = load ptr, ptr %3, align 8, !tbaa !19
  %59 = getelementptr inbounds nuw %struct.b2World, ptr %58, i32 0, i32 11
  %60 = load i32, ptr %4, align 4, !tbaa !3
  call void @b2FreeId(ptr noundef %59, i32 noundef %60)
  call void @llvm.lifetime.end.p0(i64 4, ptr %7) #6
  call void @llvm.lifetime.end.p0(i64 8, ptr %6) #6
  call void @llvm.lifetime.end.p0(i64 8, ptr %5) #6
  ret void
}