; Function Attrs: nounwind uwtable
define hidden void @b2DestroyIsland(ptr noundef %0, i32 noundef %1) local_unnamed_addr #0 {
  %3 = getelementptr inbounds nuw i8, ptr %0, i64 1192
  %.val19 = load ptr, ptr %3, align 8, !tbaa !10
  %4 = sext i32 %1 to i64
  %5 = getelementptr inbounds %struct.b2Island, ptr %.val19, i64 %4
  %6 = getelementptr inbounds nuw i8, ptr %0, i64 1072
  %7 = load i32, ptr %5, align 4, !tbaa !67
  %.val = load ptr, ptr %6, align 8, !tbaa !66
  %8 = sext i32 %7 to i64
  %9 = getelementptr inbounds %struct.b2SolverSet, ptr %.val, i64 %8, i32 4
  %10 = getelementptr inbounds nuw i8, ptr %5, i64 4
  %11 = load i32, ptr %10, align 4, !tbaa !79
  %12 = getelementptr inbounds nuw i8, ptr %9, i64 8
  %13 = load i32, ptr %12, align 8, !tbaa !92
  %14 = add nsw i32 %13, -1
  %.not.i = icmp eq i32 %11, %14
  br i1 %.not.i, label %b2IslandSimArray_RemoveSwap.exit.thread, label %b2IslandSimArray_RemoveSwap.exit

b2IslandSimArray_RemoveSwap.exit.thread:          ; preds = %2
  store i32 %11, ptr %12, align 8, !tbaa !92
  br label %29

b2IslandSimArray_RemoveSwap.exit:                 ; preds = %2
  %15 = load ptr, ptr %9, align 8, !tbaa !14
  %16 = sext i32 %11 to i64
  %17 = getelementptr inbounds %struct.b2IslandSim, ptr %15, i64 %16
  %18 = sext i32 %14 to i64
  %19 = getelementptr inbounds %struct.b2IslandSim, ptr %15, i64 %18
  %20 = load i32, ptr %19, align 4, !tbaa !95
  store i32 %20, ptr %17, align 4, !tbaa !95
  %.pre.i = load i32, ptr %12, align 8, !tbaa !92
  %.pre10.i = add nsw i32 %.pre.i, -1
  store i32 %.pre10.i, ptr %12, align 8, !tbaa !92
  %.not = icmp eq i32 %13, 0
  br i1 %.not, label %29, label %21

21:                                               ; preds = %b2IslandSimArray_RemoveSwap.exit
  %22 = load ptr, ptr %9, align 8, !tbaa !96
  %23 = load i32, ptr %10, align 4, !tbaa !79
  %24 = sext i32 %23 to i64
  %25 = getelementptr inbounds %struct.b2IslandSim, ptr %22, i64 %24
  %26 = load i32, ptr %25, align 4, !tbaa !93
  %27 = sext i32 %26 to i64
  %28 = getelementptr inbounds %struct.b2Island, ptr %.val19, i64 %27, i32 1
  store i32 %23, ptr %28, align 4, !tbaa !79
  br label %29

29:                                               ; preds = %b2IslandSimArray_RemoveSwap.exit.thread, %21, %b2IslandSimArray_RemoveSwap.exit
  %30 = getelementptr inbounds nuw i8, ptr %5, i64 8
  store i32 -1, ptr %30, align 4, !tbaa !80
  store i32 -1, ptr %5, align 4, !tbaa !67
  store i32 -1, ptr %10, align 4, !tbaa !79
  %31 = getelementptr inbounds nuw i8, ptr %0, i64 1168
  tail call void @b2FreeId(ptr noundef nonnull %31, i32 noundef %1) #5
  ret void
}